target datalayout = "e-m:e-p270:32:32-p271:32:32-p272:64:64-i64:64-i128:128-f80:128-n8:16:32:64-S128"
target triple = "x86_64-pc-linux-gnu"

%"class.llvm::SmallVectorBase" = type { ptr, i32, i32 }
%"class.llvm::StringRef" = type { ptr, i64 }
%"struct.clang::format::FormatToken" = type <{ %"class.clang::Token", %"class.llvm::StringRef", %"class.std::shared_ptr", %"class.clang::SourceRange", i8, i16, i8, i32, i32, i32, i32, i32, i32, i32, i32, i32, i16, [2 x i8], i32, i32, i32, i32, i32, i32, i32, i32, i32, i32, [4 x i8], %"class.llvm::SmallVector.11", i32, i32, ptr, ptr, ptr, ptr, i8, i8, i8, i8, i8, i8, [2 x i8], %"class.llvm::SmallVector.16", %"class.std::optional.21", i8, [7 x i8] }>
%"class.clang::Token" = type <{ i32, i32, ptr, i16, i16, [4 x i8] }>
%"class.std::shared_ptr" = type { %"class.std::__shared_ptr" }
%"class.std::__shared_ptr" = type { ptr, %"class.std::__shared_count" }
%"class.std::__shared_count" = type { ptr }
%"class.clang::SourceRange" = type { %"class.clang::SourceLocation", %"class.clang::SourceLocation" }
%"class.clang::SourceLocation" = type { i32 }
%"class.llvm::SmallVector.11" = type { %"class.llvm::SmallVectorImpl.12", %"struct.llvm::SmallVectorStorage.15" }
%"class.llvm::SmallVectorImpl.12" = type { %"class.llvm::SmallVectorTemplateBase.13" }
%"class.llvm::SmallVectorTemplateBase.13" = type { %"class.llvm::SmallVectorTemplateCommon.14" }
%"class.llvm::SmallVectorTemplateCommon.14" = type { %"class.llvm::SmallVectorBase" }
%"struct.llvm::SmallVectorStorage.15" = type { [16 x i8] }
%"class.llvm::SmallVector.16" = type { %"class.llvm::SmallVectorImpl.17", %"struct.llvm::SmallVectorStorage.20" }
%"class.llvm::SmallVectorImpl.17" = type { %"class.llvm::SmallVectorTemplateBase.18" }
%"class.llvm::SmallVectorTemplateBase.18" = type { %"class.llvm::SmallVectorTemplateCommon.19" }
%"class.llvm::SmallVectorTemplateCommon.19" = type { %"class.llvm::SmallVectorBase" }
%"struct.llvm::SmallVectorStorage.20" = type { [8 x i8] }
%"class.std::optional.21" = type { %"struct.std::_Optional_base.22" }
%"struct.std::_Optional_base.22" = type { %"struct.std::_Optional_payload.24" }
%"struct.std::_Optional_payload.24" = type { %"struct.std::_Optional_payload.base.33", [7 x i8] }
%"struct.std::_Optional_payload.base.33" = type { %"struct.std::_Optional_payload_base.base.32" }
%"struct.std::_Optional_payload_base.base.32" = type <{ %"union.std::_Optional_payload_base<clang::format::MacroExpansion>::_Storage", i8 }>
%"union.std::_Optional_payload_base<clang::format::MacroExpansion>::_Storage" = type { %"struct.clang::format::MacroExpansion" }
%"struct.clang::format::MacroExpansion" = type { i32, %"class.llvm::SmallVector.27", i32, i32 }
%"class.llvm::SmallVector.27" = type { %"class.llvm::SmallVectorImpl.28", %"struct.llvm::SmallVectorStorage.31" }
%"class.llvm::SmallVectorImpl.28" = type { %"class.llvm::SmallVectorTemplateBase.29" }
%"class.llvm::SmallVectorTemplateBase.29" = type { %"class.llvm::SmallVectorTemplateCommon.30" }
%"class.llvm::SmallVectorTemplateCommon.30" = type { %"class.llvm::SmallVectorBase" }
%"struct.llvm::SmallVectorStorage.31" = type { [8 x i8] }

; Function Attrs: mustprogress nounwind uwtable
define linkonce_odr hidden noundef zeroext i1 @_ZNK5clang5Token2isENS_3tok9TokenKindE(ptr noundef nonnull align 8 dereferenceable(20) %0, i16 noundef zeroext %1) #0 comdat align 2 {
  %3 = alloca ptr, align 8
  %4 = alloca i16, align 2
  store ptr %0, ptr %3, align 8
  store i16 %1, ptr %4, align 2
  %5 = load ptr, ptr %3, align 8
  %6 = getelementptr inbounds nuw %"class.clang::Token", ptr %5, i32 0, i32 3
  %7 = load i16, ptr %6, align 8
  %8 = zext i16 %7 to i32
  %9 = load i16, ptr %4, align 2
  %10 = zext i16 %9 to i32
  %11 = icmp eq i32 %8, %10
  ret i1 %11
}

; Function Attrs: mustprogress nounwind uwtable
define linkonce_odr hidden noundef zeroext i1 @_ZNK5clang6format11FormatToken2isENS_3tok9TokenKindE(ptr noundef nonnull align 8 dereferenceable(305) %0, i16 noundef zeroext %1) #0 comdat align 2 {
  %3 = alloca ptr, align 8
  %4 = alloca i16, align 2
  store ptr %0, ptr %3, align 8
  store i16 %1, ptr %4, align 2
  %5 = load ptr, ptr %3, align 8
  %6 = getelementptr inbounds nuw %"struct.clang::format::FormatToken", ptr %5, i32 0, i32 0
  %7 = load i16, ptr %4, align 2
  %8 = call noundef zeroext i1 @_ZNK5clang5Token2isENS_3tok9TokenKindE(ptr noundef nonnull align 8 dereferenceable(20) %6, i16 noundef zeroext %7)
  ret i1 %8
}

; Function Attrs: mustprogress nounwind uwtable
define linkonce_odr hidden noundef zeroext i1 @_ZNK5clang6format11FormatToken7isOneOfINS_3tok9TokenKindES4_EEbT_T0_(ptr noundef nonnull align 8 dereferenceable(305) %0, i16 noundef zeroext %1, i16 noundef zeroext %2) #0 comdat align 2 {
  %4 = alloca ptr, align 8
  %5 = alloca i16, align 2
  %6 = alloca i16, align 2
  store ptr %0, ptr %4, align 8
  store i16 %1, ptr %5, align 2
  store i16 %2, ptr %6, align 2
  %7 = load ptr, ptr %4, align 8
  %8 = load i16, ptr %5, align 2
  %9 = call noundef zeroext i1 @_ZNK5clang6format11FormatToken2isENS_3tok9TokenKindE(ptr noundef nonnull align 8 dereferenceable(305) %7, i16 noundef zeroext %8)
  br i1 %9, label %13, label %10

10:                                               ; preds = %3
  %11 = load i16, ptr %6, align 2
  %12 = call noundef zeroext i1 @_ZNK5clang6format11FormatToken2isENS_3tok9TokenKindE(ptr noundef nonnull align 8 dereferenceable(305) %7, i16 noundef zeroext %11)
  br label %13

13:                                               ; preds = %10, %3
  %14 = phi i1 [ true, %3 ], [ %12, %10 ]
  ret i1 %14
}

; Function Attrs: mustprogress nounwind uwtable
define dso_local noundef zeroext i1 @_ZNK5clang6format11FormatToken18isTypeOrIdentifierERKNS_11LangOptionsE(ptr noundef nonnull align 8 dereferenceable(305) %0, ptr noundef nonnull align 8 dereferenceable(841) %1) #0 align 2 {
  %3 = alloca ptr, align 8
  %4 = alloca ptr, align 8
  store ptr %0, ptr %3, align 8
  store ptr %1, ptr %4, align 8
  %5 = load ptr, ptr %3, align 8
  %6 = load ptr, ptr %4, align 8
  %7 = call noundef zeroext i1 @_ZNK5clang6format11FormatToken10isTypeNameERKNS_11LangOptionsE(ptr noundef nonnull align 8 dereferenceable(305) %5, ptr noundef nonnull align 8 dereferenceable(841) %6)
  br i1 %7, label %10, label %8

8:                                                ; preds = %2
  %9 = call noundef zeroext i1 @_ZNK5clang6format11FormatToken7isOneOfINS_3tok9TokenKindES4_EEbT_T0_(ptr noundef nonnull align 8 dereferenceable(305) %5, i16 noundef zeroext 77, i16 noundef zeroext 5)
  br label %10

10:                                               ; preds = %8, %2
  %11 = phi i1 [ true, %2 ], [ %9, %8 ]
  ret i1 %11
}