; Function Attrs: mustprogress nounwind uwtable
define dso_local noundef zeroext i1 @_ZNK5clang6format11FormatToken18isTypeOrIdentifierERKNS_11LangOptionsE(ptr noundef nonnull align 8 dereferenceable(305) %0, ptr noundef nonnull align 8 dereferenceable(841) %1) local_unnamed_addr #2 align 2 {
  %3 = tail call noundef zeroext i1 @_ZNK5clang6format11FormatToken10isTypeNameERKNS_11LangOptionsE(ptr noundef nonnull align 8 dereferenceable(305) %0, ptr noundef nonnull align 8 dereferenceable(841) %1)
  br i1 %3, label %9, label %4

4:                                                ; preds = %2
  %5 = getelementptr inbounds nuw i8, ptr %0, i64 16
  %6 = load i16, ptr %5, align 8
  %7 = icmp eq i16 %6, 77
  %8 = icmp eq i16 %6, 5
  %spec.select.i = or i1 %7, %8
  br label %9

9:                                                ; preds = %4, %2
  %10 = phi i1 [ true, %2 ], [ %spec.select.i, %4 ]
  ret i1 %10
}